; Function Attrs: nounwind uwtable
define range(i32 0, 2) i32 @glfwInit() local_unnamed_addr #2 {
  %1 = load i32, ptr @_glfw, align 8, !tbaa !99
  %.not = icmp eq i32 %1, 0
  br i1 %.not, label %2, label %21

2:                                                ; preds = %0
  tail call void @llvm.memset.p0.i64(ptr noundef nonnull align 8 dereferenceable(143664) @_glfw, i8 0, i64 143664, i1 false)
  tail call void @llvm.memcpy.p0.p0.i64(ptr noundef nonnull align 8 dereferenceable(40) getelementptr inbounds nuw (i8, ptr @_glfw, i64 616), ptr noundef nonnull align 8 dereferenceable(40) @_glfwInitHints, i64 40, i1 false), !tbaa.struct !105
  tail call void @llvm.memcpy.p0.p0.i64(ptr noundef nonnull align 8 dereferenceable(32) getelementptr inbounds nuw (i8, ptr @_glfw, i64 8), ptr noundef nonnull align 8 dereferenceable(32) @_glfwInitAllocator, i64 32, i1 false), !tbaa.struct !106
  %3 = load ptr, ptr getelementptr inbounds nuw (i8, ptr @_glfw, i64 8), align 8, !tbaa !8
  %.not1 = icmp eq ptr %3, null
  br i1 %.not1, label %4, label %5

4:                                                ; preds = %2
  store ptr @defaultAllocate, ptr getelementptr inbounds nuw (i8, ptr @_glfw, i64 8), align 8, !tbaa !8
  store ptr @defaultReallocate, ptr getelementptr inbounds nuw (i8, ptr @_glfw, i64 16), align 8, !tbaa !96
  store ptr @defaultDeallocate, ptr getelementptr inbounds nuw (i8, ptr @_glfw, i64 24), align 8, !tbaa !97
  br label %5

5:                                                ; preds = %4, %2
  %6 = load i32, ptr getelementptr inbounds nuw (i8, ptr @_glfw, i64 624), align 8, !tbaa !107
  %7 = tail call i32 @_glfwSelectPlatform(i32 noundef %6, ptr noundef nonnull getelementptr inbounds nuw (i8, ptr @_glfw, i64 40)) #21
  %.not2 = icmp eq i32 %7, 0
  br i1 %.not2, label %21, label %8

8:                                                ; preds = %5
  %9 = load ptr, ptr getelementptr inbounds nuw (i8, ptr @_glfw, i64 48), align 8, !tbaa !108
  %10 = tail call i32 %9() #21
  %.not3 = icmp eq i32 %10, 0
  br i1 %.not3, label %11, label %12

11:                                               ; preds = %8
  tail call fastcc void @terminate()
  br label %21

12:                                               ; preds = %8
  %13 = tail call i32 @_glfwPlatformCreateMutex(ptr noundef nonnull getelementptr inbounds nuw (i8, ptr @_glfw, i64 133424)) #21
  %.not4 = icmp eq i32 %13, 0
  br i1 %.not4, label %18, label %14

14:                                               ; preds = %12
  %15 = tail call i32 @_glfwPlatformCreateTls(ptr noundef nonnull getelementptr inbounds nuw (i8, ptr @_glfw, i64 133404)) #21
  %.not5 = icmp eq i32 %15, 0
  br i1 %.not5, label %18, label %16

16:                                               ; preds = %14
  %17 = tail call i32 @_glfwPlatformCreateTls(ptr noundef nonnull getelementptr inbounds nuw (i8, ptr @_glfw, i64 133412)) #21
  %.not6 = icmp eq i32 %17, 0
  br i1 %.not6, label %18, label %19

18:                                               ; preds = %16, %14, %12
  tail call fastcc void @terminate()
  br label %21

19:                                               ; preds = %16
  tail call void @_glfwPlatformSetTls(ptr noundef nonnull getelementptr inbounds nuw (i8, ptr @_glfw, i64 133404), ptr noundef nonnull @_glfwMainThreadError) #21
  tail call void @_glfwInitGamepadMappings() #21
  tail call void @_glfwPlatformInitTimer() #21
  %20 = tail call i64 @_glfwPlatformGetTimerValue() #21
  store i64 %20, ptr getelementptr inbounds nuw (i8, ptr @_glfw, i64 133472), align 8, !tbaa !109
  store i32 1, ptr @_glfw, align 8, !tbaa !99
  tail call void @glfwDefaultWindowHints() #21
  br label %21

21:                                               ; preds = %5, %0, %19, %18, %11
  %.0 = phi i32 [ 1, %19 ], [ 0, %18 ], [ 0, %11 ], [ 1, %0 ], [ 0, %5 ]
  ret i32 %.0
}